target datalayout = "e-m:e-p270:32:32-p271:32:32-p272:64:64-i64:64-i128:128-f80:128-n8:16:32:64-S128"
target triple = "x86_64-pc-linux-gnu"

@.str.50 = private unnamed_addr constant [18 x i8] c"submodule.recurse\00", align 1

; Function Attrs: nounwind uwtable
define internal i32 @git_reset_config(ptr noundef %0, ptr noundef %1, ptr noundef %2, ptr noundef %3) #0 {
  %5 = alloca i32, align 4
  %6 = alloca ptr, align 8
  %7 = alloca ptr, align 8
  %8 = alloca ptr, align 8
  %9 = alloca ptr, align 8
  store ptr %0, ptr %6, align 8, !tbaa !11
  store ptr %1, ptr %7, align 8, !tbaa !11
  store ptr %2, ptr %8, align 8, !tbaa !61
  store ptr %3, ptr %9, align 8, !tbaa !60
  %10 = load ptr, ptr %6, align 8, !tbaa !11
  %11 = call i32 @strcmp(ptr noundef %10, ptr noundef @.str.50) #11
  %12 = icmp ne i32 %11, 0
  br i1 %12, label %18, label %13

13:                                               ; preds = %4
  %14 = load ptr, ptr %6, align 8, !tbaa !11
  %15 = load ptr, ptr %7, align 8, !tbaa !11
  %16 = load ptr, ptr %9, align 8, !tbaa !60
  %17 = call i32 @git_default_submodule_config(ptr noundef %14, ptr noundef %15, ptr noundef %16)
  store i32 %17, ptr %5, align 4
  br label %24

18:                                               ; preds = %4
  %19 = load ptr, ptr %6, align 8, !tbaa !11
  %20 = load ptr, ptr %7, align 8, !tbaa !11
  %21 = load ptr, ptr %8, align 8, !tbaa !61
  %22 = load ptr, ptr %9, align 8, !tbaa !60
  %23 = call i32 @git_default_config(ptr noundef %19, ptr noundef %20, ptr noundef %21, ptr noundef %22)
  store i32 %23, ptr %5, align 4
  br label %24

24:                                               ; preds = %18, %13
  %25 = load i32, ptr %5, align 4
  ret i32 %25
}